target datalayout = "e-m:e-p270:32:32-p271:32:32-p272:64:64-i64:64-i128:128-f80:128-n8:16:32:64-S128"
target triple = "x86_64-pc-linux-gnu"

%"class.Ipopt::SymTMatrix" = type <{ %"class.Ipopt::SymMatrix", ptr, ptr, i8, [7 x i8] }>
%"class.Ipopt::SymMatrix" = type { %"class.Ipopt::Matrix.base", ptr }
%"class.Ipopt::Matrix.base" = type <{ %"class.Ipopt::TaggedObject", %"class.Ipopt::SmartPtr", i32, i8 }>
%"class.Ipopt::TaggedObject" = type { %"class.Ipopt::ReferencedObject.base", %"class.Ipopt::Subject", i32, i32 }
%"class.Ipopt::ReferencedObject.base" = type <{ ptr, i32 }>
%"class.Ipopt::Subject" = type { ptr, %"class.std::vector" }
%"class.std::vector" = type { %"struct.std::_Vector_base" }
%"struct.std::_Vector_base" = type { %"struct.std::_Vector_base<Ipopt::Observer *, std::allocator<Ipopt::Observer *>>::_Vector_impl" }
%"struct.std::_Vector_base<Ipopt::Observer *, std::allocator<Ipopt::Observer *>>::_Vector_impl" = type { %"struct.std::_Vector_base<Ipopt::Observer *, std::allocator<Ipopt::Observer *>>::_Vector_impl_data" }
%"struct.std::_Vector_base<Ipopt::Observer *, std::allocator<Ipopt::Observer *>>::_Vector_impl_data" = type { ptr, ptr, ptr }
%"class.Ipopt::SmartPtr" = type { ptr }
%"class.Ipopt::SymTMatrixSpace" = type { %"class.Ipopt::SymMatrixSpace.base", i32, ptr, ptr }
%"class.Ipopt::SymMatrixSpace.base" = type { %"class.Ipopt::MatrixSpace.base" }
%"class.Ipopt::MatrixSpace.base" = type { %"class.Ipopt::ReferencedObject.base", i32, i32 }

; Function Attrs: mustprogress nounwind uwtable
define linkonce_odr noundef i32 @_ZNK5Ipopt15SymTMatrixSpace8NonzerosEv(ptr noundef nonnull align 8 dereferenceable(40) %0) #2 comdat align 2 {
  %2 = alloca ptr, align 8
  store ptr %0, ptr %2, align 8, !tbaa !8
  %3 = load ptr, ptr %2, align 8
  %4 = getelementptr inbounds nuw %"class.Ipopt::SymTMatrixSpace", ptr %3, i32 0, i32 1
  %5 = load i32, ptr %4, align 4, !tbaa !77
  ret i32 %5
}

; Function Attrs: inlinehint mustprogress uwtable
define linkonce_odr noundef i32 @_ZNK5Ipopt10SymTMatrix8NonzerosEv(ptr noundef nonnull align 8 dereferenceable(97) %0) #1 comdat align 2 {
  %2 = alloca ptr, align 8
  store ptr %0, ptr %2, align 8, !tbaa !3
  %3 = load ptr, ptr %2, align 8
  %4 = getelementptr inbounds nuw %"class.Ipopt::SymTMatrix", ptr %3, i32 0, i32 1
  %5 = load ptr, ptr %4, align 8, !tbaa !12
  %6 = call noundef i32 @_ZNK5Ipopt15SymTMatrixSpace8NonzerosEv(ptr noundef nonnull align 8 dereferenceable(40) %5)
  ret i32 %6
}

; Function Attrs: mustprogress uwtable
define void @_ZN5Ipopt10SymTMatrix9SetValuesEPKd(ptr noundef nonnull align 8 dereferenceable(97) %0, ptr noundef %1) #0 align 2 {
  %3 = alloca ptr, align 8
  %4 = alloca ptr, align 8
  store ptr %0, ptr %3, align 8, !tbaa !3
  store ptr %1, ptr %4, align 8, !tbaa !37
  %5 = load ptr, ptr %3, align 8
  %6 = call noundef i32 @_ZNK5Ipopt10SymTMatrix8NonzerosEv(ptr noundef nonnull align 8 dereferenceable(97) %5)
  %7 = load ptr, ptr %4, align 8, !tbaa !37
  %8 = getelementptr inbounds nuw %"class.Ipopt::SymTMatrix", ptr %5, i32 0, i32 2
  %9 = load ptr, ptr %8, align 8, !tbaa !31
  call void @_ZN5Ipopt10IpBlasCopyEiPKdiPdi(i32 noundef %6, ptr noundef %7, i32 noundef 1, ptr noundef %9, i32 noundef 1)
  %10 = getelementptr inbounds nuw %"class.Ipopt::SymTMatrix", ptr %5, i32 0, i32 3
  store i8 1, ptr %10, align 8, !tbaa !32
  call void @_ZN5Ipopt12TaggedObject13ObjectChangedEv(ptr noundef nonnull align 8 dereferenceable(56) %5)
  ret void
}